; Function Attrs: nounwind uwtable
define ptr @l_Lean_Elab_elabDeclAttrs___at___private_Lean_Elab_Inductive_0__Lean_Elab_Command_inductiveSyntaxToView___spec__3___boxed(ptr noundef %0, ptr noundef %1, ptr noundef %2, ptr noundef %3, ptr noundef %4, ptr noundef %5, ptr noundef %6, ptr noundef %7) local_unnamed_addr #0 {
  %9 = tail call ptr @l_Lean_Syntax_getArg(ptr noundef %0, ptr noundef nonnull inttoptr (i64 3 to ptr)) #6
  %10 = tail call ptr @l_Lean_Syntax_getSepArgs(ptr noundef %9) #6
  %11 = ptrtoint ptr %9 to i64
  %12 = and i64 %11, 1
  %.not.i26 = icmp eq i64 %12, 0
  br i1 %.not.i26, label %13, label %lean_dec.exit14.i

13:                                               ; preds = %8
  %14 = load i32, ptr %9, align 4, !tbaa !4
  %15 = icmp sgt i32 %14, 1
  br i1 %15, label %16, label %18, !prof !9

16:                                               ; preds = %13
  %17 = add nsw i32 %14, -1
  store i32 %17, ptr %9, align 4, !tbaa !4
  br label %lean_dec.exit14.i

18:                                               ; preds = %13
  %.not.i.i = icmp eq i32 %14, 0
  br i1 %.not.i.i, label %lean_dec.exit14.i, label %19

19:                                               ; preds = %18
  tail call void @lean_dec_ref_cold(ptr noundef nonnull %9) #6
  br label %lean_dec.exit14.i

lean_dec.exit14.i:                                ; preds = %19, %18, %16, %8
  %20 = tail call ptr @l_Lean_Elab_elabAttrs___at___private_Lean_Elab_Inductive_0__Lean_Elab_Command_inductiveSyntaxToView___spec__4(ptr noundef %10, ptr noundef %1, ptr noundef %2, ptr noundef %3, ptr noundef %4, ptr noundef %5, ptr noundef %6, ptr noundef %7)
  %21 = ptrtoint ptr %10 to i64
  %22 = and i64 %21, 1
  %.not17.i = icmp eq i64 %22, 0
  br i1 %.not17.i, label %23, label %l_Lean_Elab_elabDeclAttrs___at___private_Lean_Elab_Inductive_0__Lean_Elab_Command_inductiveSyntaxToView___spec__3.exit

23:                                               ; preds = %lean_dec.exit14.i
  %24 = load i32, ptr %10, align 4, !tbaa !4
  %25 = icmp sgt i32 %24, 1
  br i1 %25, label %26, label %28, !prof !9

26:                                               ; preds = %23
  %27 = add nsw i32 %24, -1
  store i32 %27, ptr %10, align 4, !tbaa !4
  br label %l_Lean_Elab_elabDeclAttrs___at___private_Lean_Elab_Inductive_0__Lean_Elab_Command_inductiveSyntaxToView___spec__3.exit

28:                                               ; preds = %23
  %.not.i15.i = icmp eq i32 %24, 0
  br i1 %.not.i15.i, label %l_Lean_Elab_elabDeclAttrs___at___private_Lean_Elab_Inductive_0__Lean_Elab_Command_inductiveSyntaxToView___spec__3.exit, label %29

29:                                               ; preds = %28
  tail call void @lean_dec_ref_cold(ptr noundef nonnull %10) #6
  br label %l_Lean_Elab_elabDeclAttrs___at___private_Lean_Elab_Inductive_0__Lean_Elab_Command_inductiveSyntaxToView___spec__3.exit

l_Lean_Elab_elabDeclAttrs___at___private_Lean_Elab_Inductive_0__Lean_Elab_Command_inductiveSyntaxToView___spec__3.exit: ; preds = %lean_dec.exit14.i, %26, %28, %29
  %30 = ptrtoint ptr %6 to i64
  %31 = and i64 %30, 1
  %.not = icmp eq i64 %31, 0
  br i1 %.not, label %32, label %lean_dec.exit17

32:                                               ; preds = %l_Lean_Elab_elabDeclAttrs___at___private_Lean_Elab_Inductive_0__Lean_Elab_Command_inductiveSyntaxToView___spec__3.exit
  %33 = load i32, ptr %6, align 4, !tbaa !4
  %34 = icmp sgt i32 %33, 1
  br i1 %34, label %35, label %37, !prof !9

35:                                               ; preds = %32
  %36 = add nsw i32 %33, -1
  store i32 %36, ptr %6, align 4, !tbaa !4
  br label %lean_dec.exit17

37:                                               ; preds = %32
  %.not.i = icmp eq i32 %33, 0
  br i1 %.not.i, label %lean_dec.exit17, label %38

38:                                               ; preds = %37
  tail call void @lean_dec_ref_cold(ptr noundef nonnull %6) #6
  br label %lean_dec.exit17

lean_dec.exit17:                                  ; preds = %38, %37, %35, %l_Lean_Elab_elabDeclAttrs___at___private_Lean_Elab_Inductive_0__Lean_Elab_Command_inductiveSyntaxToView___spec__3.exit
  %39 = ptrtoint ptr %4 to i64
  %40 = and i64 %39, 1
  %.not27 = icmp eq i64 %40, 0
  br i1 %.not27, label %41, label %lean_dec.exit16

41:                                               ; preds = %lean_dec.exit17
  %42 = load i32, ptr %4, align 4, !tbaa !4
  %43 = icmp sgt i32 %42, 1
  br i1 %43, label %44, label %46, !prof !9

44:                                               ; preds = %41
  %45 = add nsw i32 %42, -1
  store i32 %45, ptr %4, align 4, !tbaa !4
  br label %lean_dec.exit16

46:                                               ; preds = %41
  %.not.i18 = icmp eq i32 %42, 0
  br i1 %.not.i18, label %lean_dec.exit16, label %47

47:                                               ; preds = %46
  tail call void @lean_dec_ref_cold(ptr noundef nonnull %4) #6
  br label %lean_dec.exit16

lean_dec.exit16:                                  ; preds = %47, %46, %44, %lean_dec.exit17
  %48 = ptrtoint ptr %3 to i64
  %49 = and i64 %48, 1
  %.not28 = icmp eq i64 %49, 0
  br i1 %.not28, label %50, label %lean_dec.exit15

50:                                               ; preds = %lean_dec.exit16
  %51 = load i32, ptr %3, align 4, !tbaa !4
  %52 = icmp sgt i32 %51, 1
  br i1 %52, label %53, label %55, !prof !9

53:                                               ; preds = %50
  %54 = add nsw i32 %51, -1
  store i32 %54, ptr %3, align 4, !tbaa !4
  br label %lean_dec.exit15

55:                                               ; preds = %50
  %.not.i20 = icmp eq i32 %51, 0
  br i1 %.not.i20, label %lean_dec.exit15, label %56

56:                                               ; preds = %55
  tail call void @lean_dec_ref_cold(ptr noundef nonnull %3) #6
  br label %lean_dec.exit15

lean_dec.exit15:                                  ; preds = %56, %55, %53, %lean_dec.exit16
  %57 = ptrtoint ptr %2 to i64
  %58 = and i64 %57, 1
  %.not29 = icmp eq i64 %58, 0
  br i1 %.not29, label %59, label %lean_dec.exit14

59:                                               ; preds = %lean_dec.exit15
  %60 = load i32, ptr %2, align 4, !tbaa !4
  %61 = icmp sgt i32 %60, 1
  br i1 %61, label %62, label %64, !prof !9

62:                                               ; preds = %59
  %63 = add nsw i32 %60, -1
  store i32 %63, ptr %2, align 4, !tbaa !4
  br label %lean_dec.exit14

64:                                               ; preds = %59
  %.not.i22 = icmp eq i32 %60, 0
  br i1 %.not.i22, label %lean_dec.exit14, label %65

65:                                               ; preds = %64
  tail call void @lean_dec_ref_cold(ptr noundef nonnull %2) #6
  br label %lean_dec.exit14

lean_dec.exit14:                                  ; preds = %65, %64, %62, %lean_dec.exit15
  %66 = ptrtoint ptr %0 to i64
  %67 = and i64 %66, 1
  %.not30 = icmp eq i64 %67, 0
  br i1 %.not30, label %68, label %lean_dec.exit

68:                                               ; preds = %lean_dec.exit14
  %69 = load i32, ptr %0, align 4, !tbaa !4
  %70 = icmp sgt i32 %69, 1
  br i1 %70, label %71, label %73, !prof !9

71:                                               ; preds = %68
  %72 = add nsw i32 %69, -1
  store i32 %72, ptr %0, align 4, !tbaa !4
  br label %lean_dec.exit

73:                                               ; preds = %68
  %.not.i24 = icmp eq i32 %69, 0
  br i1 %.not.i24, label %lean_dec.exit, label %74

74:                                               ; preds = %73
  tail call void @lean_dec_ref_cold(ptr noundef nonnull %0) #6
  br label %lean_dec.exit

lean_dec.exit:                                    ; preds = %74, %73, %71, %lean_dec.exit14
  ret ptr %20
}